target datalayout = "e-m:e-p270:32:32-p271:32:32-p272:64:64-i64:64-i128:128-f80:128-n8:16:32:64-S128"
target triple = "x86_64-unknown-linux-gnu"

%"class.std::set.0" = type { %"class.std::_Rb_tree.1" }
%"class.std::_Rb_tree.1" = type { %"struct.std::_Rb_tree<QuantLib::Observer *, QuantLib::Observer *, std::_Identity<QuantLib::Observer *>, std::less<QuantLib::Observer *>>::_Rb_tree_impl" }
%"struct.std::_Rb_tree<QuantLib::Observer *, QuantLib::Observer *, std::_Identity<QuantLib::Observer *>, std::less<QuantLib::Observer *>>::_Rb_tree_impl" = type { [8 x i8], %"struct.std::_Rb_tree_header" }
%"struct.std::_Rb_tree_header" = type { %"struct.std::_Rb_tree_node_base", i64 }
%"struct.std::_Rb_tree_node_base" = type { i32, ptr, ptr, ptr }
%"class.std::set" = type { %"class.std::_Rb_tree" }
%"class.std::_Rb_tree" = type { %"struct.std::_Rb_tree<boost::shared_ptr<QuantLib::Observable>, boost::shared_ptr<QuantLib::Observable>, std::_Identity<boost::shared_ptr<QuantLib::Observable>>, std::less<boost::shared_ptr<QuantLib::Observable>>>::_Rb_tree_impl" }
%"struct.std::_Rb_tree<boost::shared_ptr<QuantLib::Observable>, boost::shared_ptr<QuantLib::Observable>, std::_Identity<boost::shared_ptr<QuantLib::Observable>>, std::less<boost::shared_ptr<QuantLib::Observable>>>::_Rb_tree_impl" = type { [8 x i8], %"struct.std::_Rb_tree_header" }
%"class.boost::detail::shared_count" = type { ptr }
%"class.QuantLib::Observable" = type { ptr, %"class.std::set.0" }
%"class.QuantLib::DayCounter" = type { %"class.boost::shared_ptr.25" }
%"class.boost::shared_ptr.25" = type { ptr, %"class.boost::detail::shared_count" }
%"class.QuantLib::Extrapolator.base" = type <{ ptr, i8 }>
%"class.QuantLib::Calendar" = type { %"class.boost::shared_ptr.26" }
%"class.boost::shared_ptr.26" = type { ptr, %"class.boost::detail::shared_count" }
%"class.QuantLib::Date" = type { i64 }
%"class.QuantLib::Observer" = type { ptr, %"class.std::set" }
%"class.QuantLib::TermStructure.base" = type { %"class.QuantLib::Extrapolator.base", i8, i8, %"class.QuantLib::Calendar", %"class.QuantLib::Date", i32, %"class.QuantLib::DayCounter" }
%"class.boost::shared_ptr.34" = type { ptr, %"class.boost::detail::shared_count" }
%"class.QuantLib::Gaussian1dSwaptionVolatility" = type { %"class.QuantLib::SwaptionVolatilityStructure.base", %"class.boost::shared_ptr.35", %"class.boost::shared_ptr.37", %"class.boost::shared_ptr.36", %"class.QuantLib::Period", %"class.QuantLib::Observer", %"class.QuantLib::Observable" }
%"class.QuantLib::SwaptionVolatilityStructure.base" = type { %"class.QuantLib::VolatilityTermStructure.base" }
%"class.QuantLib::VolatilityTermStructure.base" = type <{ %"class.QuantLib::TermStructure.base", i32 }>
%"class.boost::shared_ptr.35" = type { ptr, %"class.boost::detail::shared_count" }
%"class.boost::shared_ptr.37" = type { ptr, %"class.boost::detail::shared_count" }
%"class.boost::shared_ptr.36" = type { ptr, %"class.boost::detail::shared_count" }
%"class.QuantLib::Period" = type { i32, i32 }
%"class.QuantLib::Gaussian1dSwaptionVolatility::DateHelper" = type { ptr, double }
%"class.QuantLib::NewtonSafe" = type { %"class.QuantLib::Solver1D.base", [6 x i8] }
%"class.QuantLib::Solver1D.base" = type <{ double, double, double, double, double, i64, i64, double, double, i8, i8 }>
%"class.QuantLib::Rounding" = type { i32, i32, i32 }
%"class.QuantLib::Solver1D" = type <{ double, double, double, double, double, i64, i64, double, double, i8, i8, [6 x i8] }>

@.str.9 = private unnamed_addr constant [8 x i8] c"px != 0\00", align 1
@.str.10 = private unnamed_addr constant [102 x i8] c"generated/home/dtcxzyw/WorkSpace/SDK/vcpkg/installed/x64-linux/include/boost/smart_ptr/shared_ptr.hpp\00", align 1
@__PRETTY_FUNCTION__._ZNK5boost10shared_ptrIN8QuantLib9SwapIndexEEptEv = private unnamed_addr constant [135 x i8] c"typename boost::detail::sp_member_access<T>::type boost::shared_ptr<QuantLib::SwapIndex>::operator->() const [T = QuantLib::SwapIndex]\00", align 1

; Function Attrs: mustprogress nounwind uwtable
define linkonce_odr void @_ZN8QuantLib8Solver1DINS_10NewtonSafeEEC2Ev(ptr noundef nonnull align 8 dereferenceable(74) %this) unnamed_addr #1 comdat align 2 {
entry:
  %this.addr = alloca ptr, align 8
  store ptr %this, ptr %this.addr, align 8, !tbaa !3
  %this1 = load ptr, ptr %this.addr, align 8
  %maxEvaluations_ = getelementptr inbounds nuw %"class.QuantLib::Solver1D", ptr %this1, i32 0, i32 5
  store i64 100, ptr %maxEvaluations_, align 8, !tbaa !56
  %lowerBound_ = getelementptr inbounds nuw %"class.QuantLib::Solver1D", ptr %this1, i32 0, i32 7
  store double 0.000000e+00, ptr %lowerBound_, align 8, !tbaa !104
  %upperBound_ = getelementptr inbounds nuw %"class.QuantLib::Solver1D", ptr %this1, i32 0, i32 8
  store double 0.000000e+00, ptr %upperBound_, align 8, !tbaa !105
  %lowerBoundEnforced_ = getelementptr inbounds nuw %"class.QuantLib::Solver1D", ptr %this1, i32 0, i32 9
  store i8 0, ptr %lowerBoundEnforced_, align 8, !tbaa !106
  %upperBoundEnforced_ = getelementptr inbounds nuw %"class.QuantLib::Solver1D", ptr %this1, i32 0, i32 10
  store i8 0, ptr %upperBoundEnforced_, align 1, !tbaa !107
  ret void
}

; Function Attrs: mustprogress uwtable
define linkonce_odr noundef ptr @_ZNK5boost10shared_ptrIN8QuantLib9SwapIndexEEptEv(ptr noundef nonnull align 8 dereferenceable(16) %this) #2 comdat align 2 {
entry:
  %this.addr = alloca ptr, align 8
  store ptr %this, ptr %this.addr, align 8, !tbaa !3
  %this1 = load ptr, ptr %this.addr, align 8
  %px = getelementptr inbounds nuw %"class.boost::shared_ptr.35", ptr %this1, i32 0, i32 0
  %0 = load ptr, ptr %px, align 8, !tbaa !32
  %cmp = icmp ne ptr %0, null
  %lnot = xor i1 %cmp, true
  %lnot2 = xor i1 %lnot, true
  %conv = zext i1 %lnot2 to i64
  %expval = call i64 @llvm.expect.i64(i64 %conv, i64 1)
  %tobool = icmp ne i64 %expval, 0
  br i1 %tobool, label %cond.true, label %cond.false

cond.true:                                        ; preds = %entry
  br label %cond.end

cond.false:                                       ; preds = %entry
  call void @_ZN5boost16assertion_failedEPKcS1_S1_l(ptr noundef @.str.9, ptr noundef @__PRETTY_FUNCTION__._ZNK5boost10shared_ptrIN8QuantLib9SwapIndexEEptEv, ptr noundef @.str.10, i64 noundef 784)
  br label %cond.end

cond.end:                                         ; preds = %cond.false, %cond.true
  %px3 = getelementptr inbounds nuw %"class.boost::shared_ptr.35", ptr %this1, i32 0, i32 0
  %1 = load ptr, ptr %px3, align 8, !tbaa !32
  ret ptr %1
}

; Function Attrs: mustprogress nounwind uwtable
define linkonce_odr void @_ZN8QuantLib6PeriodC2EiNS_8TimeUnitE(ptr noundef nonnull align 4 dereferenceable(8) %this, i32 noundef %n, i32 noundef %units) unnamed_addr #1 comdat align 2 {
entry:
  %this.addr = alloca ptr, align 8
  %n.addr = alloca i32, align 4
  %units.addr = alloca i32, align 4
  store ptr %this, ptr %this.addr, align 8, !tbaa !3
  store i32 %n, ptr %n.addr, align 4, !tbaa !36
  store i32 %units, ptr %units.addr, align 4, !tbaa !37
  %this1 = load ptr, ptr %this.addr, align 8
  %length_ = getelementptr inbounds nuw %"class.QuantLib::Period", ptr %this1, i32 0, i32 0
  %0 = load i32, ptr %n.addr, align 4, !tbaa !36
  store i32 %0, ptr %length_, align 4, !tbaa !66
  %units_ = getelementptr inbounds nuw %"class.QuantLib::Period", ptr %this1, i32 0, i32 1
  %1 = load i32, ptr %units.addr, align 4, !tbaa !37
  store i32 %1, ptr %units_, align 4, !tbaa !68
  ret void
}

; Function Attrs: mustprogress nounwind uwtable
define linkonce_odr void @_ZN8QuantLib8RoundingC2EiNS0_4TypeEi(ptr noundef nonnull align 4 dereferenceable(12) %this, i32 noundef %precision, i32 noundef %type, i32 noundef %digit) unnamed_addr #1 comdat align 2 {
entry:
  %this.addr = alloca ptr, align 8
  %precision.addr = alloca i32, align 4
  %type.addr = alloca i32, align 4
  %digit.addr = alloca i32, align 4
  store ptr %this, ptr %this.addr, align 8, !tbaa !3
  store i32 %precision, ptr %precision.addr, align 4, !tbaa !36
  store i32 %type, ptr %type.addr, align 4, !tbaa !60
  store i32 %digit, ptr %digit.addr, align 4, !tbaa !36
  %this1 = load ptr, ptr %this.addr, align 8
  %precision_ = getelementptr inbounds nuw %"class.QuantLib::Rounding", ptr %this1, i32 0, i32 0
  %0 = load i32, ptr %precision.addr, align 4, !tbaa !36
  store i32 %0, ptr %precision_, align 4, !tbaa !62
  %type_ = getelementptr inbounds nuw %"class.QuantLib::Rounding", ptr %this1, i32 0, i32 1
  %1 = load i32, ptr %type.addr, align 4, !tbaa !60
  store i32 %1, ptr %type_, align 4, !tbaa !64
  %digit_ = getelementptr inbounds nuw %"class.QuantLib::Rounding", ptr %this1, i32 0, i32 2
  %2 = load i32, ptr %digit.addr, align 4, !tbaa !36
  store i32 %2, ptr %digit_, align 4, !tbaa !65
  ret void
}

; Function Attrs: inlinehint mustprogress nounwind uwtable
define linkonce_odr noundef i64 @_ZNK8QuantLib4Date12serialNumberEv(ptr noundef nonnull align 8 dereferenceable(8) %this) #5 comdat align 2 {
entry:
  %this.addr = alloca ptr, align 8
  store ptr %this, ptr %this.addr, align 8, !tbaa !3
  %this1 = load ptr, ptr %this.addr, align 8
  %serialNumber_ = getelementptr inbounds nuw %"class.QuantLib::Date", ptr %this1, i32 0, i32 0
  %0 = load i64, ptr %serialNumber_, align 8, !tbaa !59
  ret i64 %0
}

; Function Attrs: inlinehint mustprogress nounwind uwtable
define linkonce_odr void @_ZN8QuantLib10NewtonSafeC2Ev(ptr noundef nonnull align 8 dereferenceable(74) %this) unnamed_addr #5 comdat align 2 {
entry:
  %this.addr = alloca ptr, align 8
  store ptr %this, ptr %this.addr, align 8, !tbaa !3
  %this1 = load ptr, ptr %this.addr, align 8
  call void @_ZN8QuantLib8Solver1DINS_10NewtonSafeEEC2Ev(ptr noundef nonnull align 8 dereferenceable(74) %this1) #13
  ret void
}

; Function Attrs: mustprogress nounwind uwtable
define linkonce_odr void @_ZN8QuantLib28Gaussian1dSwaptionVolatility10DateHelperC2ERKNS_13TermStructureEd(ptr noundef nonnull align 8 dereferenceable(16) %this, ptr noundef nonnull align 8 dereferenceable(64) %ts, double noundef %t) unnamed_addr #1 comdat align 2 {
entry:
  %this.addr = alloca ptr, align 8
  %ts.addr = alloca ptr, align 8
  %t.addr = alloca double, align 8
  store ptr %this, ptr %this.addr, align 8, !tbaa !3
  store ptr %ts, ptr %ts.addr, align 8, !tbaa !3
  store double %t, ptr %t.addr, align 8, !tbaa !43
  %this1 = load ptr, ptr %this.addr, align 8
  %ts_ = getelementptr inbounds nuw %"class.QuantLib::Gaussian1dSwaptionVolatility::DateHelper", ptr %this1, i32 0, i32 0
  %0 = load ptr, ptr %ts.addr, align 8, !tbaa !3
  store ptr %0, ptr %ts_, align 8, !tbaa !3
  %t_ = getelementptr inbounds nuw %"class.QuantLib::Gaussian1dSwaptionVolatility::DateHelper", ptr %this1, i32 0, i32 1
  %1 = load double, ptr %t.addr, align 8, !tbaa !43
  store double %1, ptr %t_, align 8, !tbaa !47
  ret void
}

; Function Attrs: mustprogress uwtable
define void @_ZNK8QuantLib28Gaussian1dSwaptionVolatility16smileSectionImplEdd(ptr dead_on_unwind noalias writable sret(%"class.boost::shared_ptr.34") align 8 %agg.result, ptr noundef nonnull align 8 dereferenceable(128) %this, double noundef %optionTime, double noundef %swapLength) unnamed_addr #2 align 2 personality ptr @__gxx_personality_v0 {
entry:
  %result.ptr = alloca ptr, align 8
  %this.addr = alloca ptr, align 8
  %optionTime.addr = alloca double, align 8
  %swapLength.addr = alloca double, align 8
  %hlp = alloca %"class.QuantLib::Gaussian1dSwaptionVolatility::DateHelper", align 8
  %newton = alloca %"class.QuantLib::NewtonSafe", align 8
  %d = alloca %"class.QuantLib::Date", align 8
  %tenor = alloca %"class.QuantLib::Period", align 4
  %ref.tmp = alloca %"class.QuantLib::Rounding", align 4
  %ref.tmp7 = alloca %"class.QuantLib::Date", align 8
  %ref.tmp8 = alloca %"class.QuantLib::Calendar", align 8
  %exn.slot = alloca ptr, align 8
  %ehselector.slot = alloca i32, align 4
  store ptr %agg.result, ptr %result.ptr, align 8
  store ptr %this, ptr %this.addr, align 8, !tbaa !3
  store double %optionTime, ptr %optionTime.addr, align 8, !tbaa !43
  store double %swapLength, ptr %swapLength.addr, align 8, !tbaa !43
  %this1 = load ptr, ptr %this.addr, align 8
  call void @llvm.lifetime.start.p0(i64 16, ptr %hlp) #13
  %0 = load double, ptr %optionTime.addr, align 8, !tbaa !43
  call void @_ZN8QuantLib28Gaussian1dSwaptionVolatility10DateHelperC2ERKNS_13TermStructureEd(ptr noundef nonnull align 8 dereferenceable(16) %hlp, ptr noundef nonnull align 8 dereferenceable(64) %this1, double noundef %0)
  call void @llvm.lifetime.start.p0(i64 80, ptr %newton) #13
  call void @_ZN8QuantLib10NewtonSafeC2Ev(ptr noundef nonnull align 8 dereferenceable(74) %newton) #13
  call void @llvm.lifetime.start.p0(i64 8, ptr %d) #13
  %1 = load double, ptr %optionTime.addr, align 8, !tbaa !43
  %vtable = load ptr, ptr %this1, align 8, !tbaa !12
  %vfn = getelementptr inbounds ptr, ptr %vtable, i64 5
  %2 = load ptr, ptr %vfn, align 8
  %call = call noundef nonnull align 8 dereferenceable(8) ptr %2(ptr noundef nonnull align 8 dereferenceable(64) %this1)
  %call2 = call noundef i64 @_ZNK8QuantLib4Date12serialNumberEv(ptr noundef nonnull align 8 dereferenceable(8) %call)
  %conv = sitofp i64 %call2 to double
  %3 = call double @llvm.fmuladd.f64(double 3.652500e+02, double %1, double %conv)
  %call3 = call noundef double @_ZNK8QuantLib8Solver1DINS_10NewtonSafeEE5solveINS_28Gaussian1dSwaptionVolatility10DateHelperEEEdRKT_ddd(ptr noundef nonnull align 8 dereferenceable(74) %newton, ptr noundef nonnull align 8 dereferenceable(16) %hlp, double noundef 1.000000e-01, double noundef %3, double noundef 1.000000e+00)
  %conv4 = fptosi double %call3 to i64
  call void @_ZN8QuantLib4DateC1El(ptr noundef nonnull align 8 dereferenceable(8) %d, i64 noundef %conv4)
  call void @llvm.lifetime.start.p0(i64 8, ptr %tenor) #13
  call void @llvm.lifetime.start.p0(i64 12, ptr %ref.tmp) #13
  call void @_ZN8QuantLib8RoundingC2EiNS0_4TypeEi(ptr noundef nonnull align 4 dereferenceable(12) %ref.tmp, i32 noundef 0, i32 noundef 3, i32 noundef 5)
  %4 = load double, ptr %swapLength.addr, align 8, !tbaa !43
  %mul = fmul double %4, 1.200000e+01
  %call5 = call noundef double @_ZNK8QuantLib8RoundingclEd(ptr noundef nonnull align 4 dereferenceable(12) %ref.tmp, double noundef %mul)
  %conv6 = fptosi double %call5 to i32
  call void @_ZN8QuantLib6PeriodC2EiNS_8TimeUnitE(ptr noundef nonnull align 4 dereferenceable(8) %tenor, i32 noundef %conv6, i32 noundef 2)
  call void @llvm.lifetime.end.p0(i64 12, ptr %ref.tmp) #13
  call void @llvm.lifetime.start.p0(i64 8, ptr %ref.tmp7) #13
  call void @llvm.lifetime.start.p0(i64 16, ptr %ref.tmp8) #13
  %indexBase_ = getelementptr inbounds nuw %"class.QuantLib::Gaussian1dSwaptionVolatility", ptr %this1, i32 0, i32 1
  %call9 = call noundef ptr @_ZNK5boost10shared_ptrIN8QuantLib9SwapIndexEEptEv(ptr noundef nonnull align 8 dereferenceable(16) %indexBase_)
  %vtable10 = load ptr, ptr %call9, align 8, !tbaa !12
  %vfn11 = getelementptr inbounds ptr, ptr %vtable10, i64 3
  %5 = load ptr, ptr %vfn11, align 8
  call void %5(ptr dead_on_unwind writable sret(%"class.QuantLib::Calendar") align 8 %ref.tmp8, ptr noundef nonnull align 8 dereferenceable(240) %call9)
  %call12 = invoke i64 @_ZNK8QuantLib8Calendar6adjustERKNS_4DateENS_21BusinessDayConventionE(ptr noundef nonnull align 8 dereferenceable(16) %ref.tmp8, ptr noundef nonnull align 8 dereferenceable(8) %d, i32 noundef 0)
          to label %invoke.cont unwind label %lpad

invoke.cont:                                      ; preds = %entry
  %coerce.dive = getelementptr inbounds nuw %"class.QuantLib::Date", ptr %ref.tmp7, i32 0, i32 0
  store i64 %call12, ptr %coerce.dive, align 8
  call void @llvm.memcpy.p0.p0.i64(ptr align 8 %d, ptr align 8 %ref.tmp7, i64 8, i1 false), !tbaa.struct !45
  call void @_ZN8QuantLib8CalendarD2Ev(ptr noundef nonnull align 8 dereferenceable(16) %ref.tmp8) #13
  call void @llvm.lifetime.end.p0(i64 16, ptr %ref.tmp8) #13
  call void @llvm.lifetime.end.p0(i64 8, ptr %ref.tmp7) #13
  %vtable13 = load ptr, ptr %this1, align 8, !tbaa !12
  %vfn14 = getelementptr inbounds ptr, ptr %vtable13, i64 14
  %6 = load ptr, ptr %vfn14, align 8
  call void %6(ptr dead_on_unwind writable sret(%"class.boost::shared_ptr.34") align 8 %agg.result, ptr noundef nonnull align 8 dereferenceable(128) %this1, ptr noundef nonnull align 8 dereferenceable(8) %d, ptr noundef nonnull align 4 dereferenceable(8) %tenor)
  call void @llvm.lifetime.end.p0(i64 8, ptr %tenor) #13
  call void @llvm.lifetime.end.p0(i64 8, ptr %d) #13
  call void @llvm.lifetime.end.p0(i64 80, ptr %newton) #13
  call void @llvm.lifetime.end.p0(i64 16, ptr %hlp) #13
  ret void

lpad:                                             ; preds = %entry
  %7 = landingpad { ptr, i32 }
          cleanup
  %8 = extractvalue { ptr, i32 } %7, 0
  store ptr %8, ptr %exn.slot, align 8
  %9 = extractvalue { ptr, i32 } %7, 1
  store i32 %9, ptr %ehselector.slot, align 4
  call void @_ZN8QuantLib8CalendarD2Ev(ptr noundef nonnull align 8 dereferenceable(16) %ref.tmp8) #13
  call void @llvm.lifetime.end.p0(i64 16, ptr %ref.tmp8) #13
  call void @llvm.lifetime.end.p0(i64 8, ptr %ref.tmp7) #13
  call void @llvm.lifetime.end.p0(i64 8, ptr %tenor) #13
  call void @llvm.lifetime.end.p0(i64 8, ptr %d) #13
  call void @llvm.lifetime.end.p0(i64 80, ptr %newton) #13
  call void @llvm.lifetime.end.p0(i64 16, ptr %hlp) #13
  br label %eh.resume

eh.resume:                                        ; preds = %lpad
  %exn = load ptr, ptr %exn.slot, align 8
  %sel = load i32, ptr %ehselector.slot, align 4
  %lpad.val = insertvalue { ptr, i32 } poison, ptr %exn, 0
  %lpad.val15 = insertvalue { ptr, i32 } %lpad.val, i32 %sel, 1
  resume { ptr, i32 } %lpad.val15
}