; Function Attrs: mustprogress uwtable
define void @_ZNK8QuantLib28Gaussian1dSwaptionVolatility16smileSectionImplEdd(ptr dead_on_unwind noalias writable sret(%"class.boost::shared_ptr.34") align 8 %agg.result, ptr noundef nonnull align 8 dereferenceable(128) %this, double noundef %optionTime, double noundef %swapLength) unnamed_addr #6 align 2 personality ptr @__gxx_personality_v0 {
entry:
  %hlp = alloca %"class.QuantLib::Gaussian1dSwaptionVolatility::DateHelper", align 8
  %newton = alloca %"class.QuantLib::NewtonSafe", align 8
  %d = alloca %"class.QuantLib::Date", align 8
  %tenor = alloca %"class.QuantLib::Period", align 4
  %ref.tmp = alloca %"class.QuantLib::Rounding", align 4
  %ref.tmp8 = alloca %"class.QuantLib::Calendar", align 8
  call void @llvm.lifetime.start.p0(i64 16, ptr nonnull %hlp) #24
  store ptr %this, ptr %hlp, align 8, !tbaa !3
  %t_.i = getelementptr inbounds nuw i8, ptr %hlp, i64 8
  store double %optionTime, ptr %t_.i, align 8, !tbaa !73
  call void @llvm.lifetime.start.p0(i64 80, ptr nonnull %newton) #24
  %maxEvaluations_.i.i = getelementptr inbounds nuw i8, ptr %newton, i64 40
  store i64 100, ptr %maxEvaluations_.i.i, align 8, !tbaa !76
  %lowerBound_.i.i = getelementptr inbounds nuw i8, ptr %newton, i64 56
  call void @llvm.memset.p0.i64(ptr noundef nonnull align 8 dereferenceable(18) %lowerBound_.i.i, i8 0, i64 18, i1 false)
  call void @llvm.lifetime.start.p0(i64 8, ptr nonnull %d) #24
  %vtable = load ptr, ptr %this, align 8, !tbaa !35
  %vfn = getelementptr inbounds i8, ptr %vtable, i64 40
  %0 = load ptr, ptr %vfn, align 8
  %call = tail call noundef nonnull align 8 dereferenceable(8) ptr %0(ptr noundef nonnull align 8 dereferenceable(64) %this)
  %1 = load i64, ptr %call, align 8, !tbaa !78
  %conv = sitofp i64 %1 to double
  %2 = tail call double @llvm.fmuladd.f64(double %optionTime, double 3.652500e+02, double %conv)
  %call3 = call noundef double @_ZNK8QuantLib8Solver1DINS_10NewtonSafeEE5solveINS_28Gaussian1dSwaptionVolatility10DateHelperEEEdRKT_ddd(ptr noundef nonnull align 8 dereferenceable(74) %newton, ptr noundef nonnull align 8 dereferenceable(16) %hlp, double noundef 1.000000e-01, double noundef %2, double noundef 1.000000e+00)
  %conv4 = fptosi double %call3 to i64
  call void @_ZN8QuantLib4DateC1El(ptr noundef nonnull align 8 dereferenceable(8) %d, i64 noundef %conv4)
  call void @llvm.lifetime.start.p0(i64 8, ptr nonnull %tenor) #24
  call void @llvm.lifetime.start.p0(i64 12, ptr nonnull %ref.tmp) #24
  store i32 0, ptr %ref.tmp, align 4, !tbaa !79
  %type_.i = getelementptr inbounds nuw i8, ptr %ref.tmp, i64 4
  store i32 3, ptr %type_.i, align 4, !tbaa !82
  %digit_.i = getelementptr inbounds nuw i8, ptr %ref.tmp, i64 8
  store i32 5, ptr %digit_.i, align 4, !tbaa !83
  %mul = fmul double %swapLength, 1.200000e+01
  %call5 = call noundef double @_ZNK8QuantLib8RoundingclEd(ptr noundef nonnull align 4 dereferenceable(12) %ref.tmp, double noundef %mul)
  %conv6 = fptosi double %call5 to i32
  store i32 %conv6, ptr %tenor, align 4, !tbaa !84
  %units_.i = getelementptr inbounds nuw i8, ptr %tenor, i64 4
  store i32 2, ptr %units_.i, align 4, !tbaa !87
  call void @llvm.lifetime.end.p0(i64 12, ptr nonnull %ref.tmp) #24
  call void @llvm.lifetime.start.p0(i64 16, ptr nonnull %ref.tmp8) #24
  %indexBase_ = getelementptr inbounds nuw i8, ptr %this, i64 72
  %3 = load ptr, ptr %indexBase_, align 8, !tbaa !56
  %cmp.not.i = icmp eq ptr %3, null
  br i1 %cmp.not.i, label %cond.false.i, label %_ZNK5boost10shared_ptrIN8QuantLib9SwapIndexEEptEv.exit, !prof !53

cond.false.i:                                     ; preds = %entry
  call void @_ZN5boost16assertion_failedEPKcS1_S1_l(ptr noundef nonnull @.str.9, ptr noundef nonnull @__PRETTY_FUNCTION__._ZNK5boost10shared_ptrIN8QuantLib9SwapIndexEEptEv, ptr noundef nonnull @.str.10, i64 noundef 784)
  %.pre.i = load ptr, ptr %indexBase_, align 8, !tbaa !56
  br label %_ZNK5boost10shared_ptrIN8QuantLib9SwapIndexEEptEv.exit

_ZNK5boost10shared_ptrIN8QuantLib9SwapIndexEEptEv.exit: ; preds = %entry, %cond.false.i
  %4 = phi ptr [ %3, %entry ], [ %.pre.i, %cond.false.i ]
  %vtable10 = load ptr, ptr %4, align 8, !tbaa !35
  %vfn11 = getelementptr inbounds i8, ptr %vtable10, i64 24
  %5 = load ptr, ptr %vfn11, align 8
  call void %5(ptr dead_on_unwind nonnull writable sret(%"class.QuantLib::Calendar") align 8 %ref.tmp8, ptr noundef nonnull align 8 dereferenceable(240) %4)
  %call12 = invoke i64 @_ZNK8QuantLib8Calendar6adjustERKNS_4DateENS_21BusinessDayConventionE(ptr noundef nonnull align 8 dereferenceable(16) %ref.tmp8, ptr noundef nonnull align 8 dereferenceable(8) %d, i32 noundef 0)
          to label %invoke.cont unwind label %lpad

invoke.cont:                                      ; preds = %_ZNK5boost10shared_ptrIN8QuantLib9SwapIndexEEptEv.exit
  store i64 %call12, ptr %d, align 8, !tbaa !30
  %pn.i.i = getelementptr inbounds nuw i8, ptr %ref.tmp8, i64 8
  %6 = load ptr, ptr %pn.i.i, align 8, !tbaa !37
  %cmp.not.i.i.i = icmp eq ptr %6, null
  br i1 %cmp.not.i.i.i, label %_ZN8QuantLib8CalendarD2Ev.exit, label %if.then.i.i.i

if.then.i.i.i:                                    ; preds = %invoke.cont
  %use_count_.i.i.i.i = getelementptr inbounds nuw i8, ptr %6, i64 8
  %7 = atomicrmw sub ptr %use_count_.i.i.i.i, i32 1 acq_rel, align 4
  %cmp.i.i.i.i = icmp eq i32 %7, 1
  br i1 %cmp.i.i.i.i, label %if.then.i.i.i.i, label %_ZN8QuantLib8CalendarD2Ev.exit

if.then.i.i.i.i:                                  ; preds = %if.then.i.i.i
  %vtable.i.i.i.i = load ptr, ptr %6, align 8, !tbaa !35
  %vfn.i.i.i.i = getelementptr inbounds i8, ptr %vtable.i.i.i.i, i64 16
  %8 = load ptr, ptr %vfn.i.i.i.i, align 8
  invoke void %8(ptr noundef nonnull align 8 dereferenceable(16) %6)
          to label %.noexc.i.i.i unwind label %terminate.lpad.i.i.i

.noexc.i.i.i:                                     ; preds = %if.then.i.i.i.i
  %weak_count_.i.i.i.i.i = getelementptr inbounds nuw i8, ptr %6, i64 12
  %9 = atomicrmw sub ptr %weak_count_.i.i.i.i.i, i32 1 acq_rel, align 4
  %cmp.i.i.i.i.i = icmp eq i32 %9, 1
  br i1 %cmp.i.i.i.i.i, label %if.then.i.i.i.i.i, label %_ZN8QuantLib8CalendarD2Ev.exit

if.then.i.i.i.i.i:                                ; preds = %.noexc.i.i.i
  %vtable.i.i.i.i.i = load ptr, ptr %6, align 8, !tbaa !35
  %vfn.i.i.i.i.i = getelementptr inbounds i8, ptr %vtable.i.i.i.i.i, i64 24
  %10 = load ptr, ptr %vfn.i.i.i.i.i, align 8
  invoke void %10(ptr noundef nonnull align 8 dereferenceable(16) %6)
          to label %_ZN8QuantLib8CalendarD2Ev.exit unwind label %terminate.lpad.i.i.i

terminate.lpad.i.i.i:                             ; preds = %if.then.i.i.i.i.i, %if.then.i.i.i.i
  %11 = landingpad { ptr, i32 }
          catch ptr null
  %12 = extractvalue { ptr, i32 } %11, 0
  call void @__clang_call_terminate(ptr %12) #25
  unreachable

_ZN8QuantLib8CalendarD2Ev.exit:                   ; preds = %invoke.cont, %if.then.i.i.i, %.noexc.i.i.i, %if.then.i.i.i.i.i
  call void @llvm.lifetime.end.p0(i64 16, ptr nonnull %ref.tmp8) #24
  %vtable13 = load ptr, ptr %this, align 8, !tbaa !35
  %vfn14 = getelementptr inbounds i8, ptr %vtable13, i64 112
  %13 = load ptr, ptr %vfn14, align 8
  call void %13(ptr dead_on_unwind writable sret(%"class.boost::shared_ptr.34") align 8 %agg.result, ptr noundef nonnull align 8 dereferenceable(128) %this, ptr noundef nonnull align 8 dereferenceable(8) %d, ptr noundef nonnull align 4 dereferenceable(8) %tenor)
  call void @llvm.lifetime.end.p0(i64 8, ptr nonnull %tenor) #24
  call void @llvm.lifetime.end.p0(i64 8, ptr nonnull %d) #24
  call void @llvm.lifetime.end.p0(i64 80, ptr nonnull %newton) #24
  call void @llvm.lifetime.end.p0(i64 16, ptr nonnull %hlp) #24
  ret void

lpad:                                             ; preds = %_ZNK5boost10shared_ptrIN8QuantLib9SwapIndexEEptEv.exit
  %14 = landingpad { ptr, i32 }
          cleanup
  call void @_ZN8QuantLib8CalendarD2Ev(ptr noundef nonnull align 8 dereferenceable(16) %ref.tmp8) #24
  call void @llvm.lifetime.end.p0(i64 16, ptr nonnull %ref.tmp8) #24
  call void @llvm.lifetime.end.p0(i64 8, ptr nonnull %tenor) #24
  call void @llvm.lifetime.end.p0(i64 8, ptr nonnull %d) #24
  call void @llvm.lifetime.end.p0(i64 80, ptr nonnull %newton) #24
  call void @llvm.lifetime.end.p0(i64 16, ptr nonnull %hlp) #24
  resume { ptr, i32 } %14
}